
AMSproject.elf:     file format elf32-avr

Sections:
Idx Name          Size      VMA       LMA       File off  Algn
  0 .data         00000000  00800200  00800200  00000394  2**0
                  CONTENTS, ALLOC, LOAD, DATA
  1 .text         00000320  00000000  00000000  00000074  2**1
                  CONTENTS, ALLOC, LOAD, READONLY, CODE
  2 .bss          000000cc  00800200  00800200  00000394  2**0
                  ALLOC
  3 .comment      00000030  00000000  00000000  00000394  2**0
                  CONTENTS, READONLY
  4 .note.gnu.avr.deviceinfo 00000040  00000000  00000000  000003c4  2**2
                  CONTENTS, READONLY
  5 .debug_aranges 00000088  00000000  00000000  00000404  2**0
                  CONTENTS, READONLY, DEBUGGING
  6 .debug_info   00001201  00000000  00000000  0000048c  2**0
                  CONTENTS, READONLY, DEBUGGING
  7 .debug_abbrev 00000ec9  00000000  00000000  0000168d  2**0
                  CONTENTS, READONLY, DEBUGGING
  8 .debug_line   000006a0  00000000  00000000  00002556  2**0
                  CONTENTS, READONLY, DEBUGGING
  9 .debug_frame  00000128  00000000  00000000  00002bf8  2**2
                  CONTENTS, READONLY, DEBUGGING
 10 .debug_str    000006c3  00000000  00000000  00002d20  2**0
                  CONTENTS, READONLY, DEBUGGING
 11 .debug_loc    00000324  00000000  00000000  000033e3  2**0
                  CONTENTS, READONLY, DEBUGGING
 12 .debug_ranges 000000b0  00000000  00000000  00003707  2**0
                  CONTENTS, READONLY, DEBUGGING

Disassembly of section .text:

00000000 <__vectors>:
   0:	71 c0       	rjmp	.+226    	; 0xe4 <__ctors_end>
   2:	00 00       	nop
   4:	81 c0       	rjmp	.+258    	; 0x108 <__bad_interrupt>
   6:	00 00       	nop
   8:	7f c0       	rjmp	.+254    	; 0x108 <__bad_interrupt>
   a:	00 00       	nop
   c:	7d c0       	rjmp	.+250    	; 0x108 <__bad_interrupt>
   e:	00 00       	nop
  10:	7b c0       	rjmp	.+246    	; 0x108 <__bad_interrupt>
  12:	00 00       	nop
  14:	79 c0       	rjmp	.+242    	; 0x108 <__bad_interrupt>
  16:	00 00       	nop
  18:	77 c0       	rjmp	.+238    	; 0x108 <__bad_interrupt>
  1a:	00 00       	nop
  1c:	75 c0       	rjmp	.+234    	; 0x108 <__bad_interrupt>
  1e:	00 00       	nop
  20:	73 c0       	rjmp	.+230    	; 0x108 <__bad_interrupt>
  22:	00 00       	nop
  24:	71 c0       	rjmp	.+226    	; 0x108 <__bad_interrupt>
  26:	00 00       	nop
  28:	6f c0       	rjmp	.+222    	; 0x108 <__bad_interrupt>
  2a:	00 00       	nop
  2c:	6d c0       	rjmp	.+218    	; 0x108 <__bad_interrupt>
  2e:	00 00       	nop
  30:	6b c0       	rjmp	.+214    	; 0x108 <__bad_interrupt>
  32:	00 00       	nop
  34:	69 c0       	rjmp	.+210    	; 0x108 <__bad_interrupt>
  36:	00 00       	nop
  38:	67 c0       	rjmp	.+206    	; 0x108 <__bad_interrupt>
  3a:	00 00       	nop
  3c:	65 c0       	rjmp	.+202    	; 0x108 <__bad_interrupt>
  3e:	00 00       	nop
  40:	63 c0       	rjmp	.+198    	; 0x108 <__bad_interrupt>
  42:	00 00       	nop
  44:	95 c0       	rjmp	.+298    	; 0x170 <__vector_17>
  46:	00 00       	nop
  48:	5f c0       	rjmp	.+190    	; 0x108 <__bad_interrupt>
  4a:	00 00       	nop
  4c:	5d c0       	rjmp	.+186    	; 0x108 <__bad_interrupt>
  4e:	00 00       	nop
  50:	5b c0       	rjmp	.+182    	; 0x108 <__bad_interrupt>
  52:	00 00       	nop
  54:	59 c0       	rjmp	.+178    	; 0x108 <__bad_interrupt>
  56:	00 00       	nop
  58:	57 c0       	rjmp	.+174    	; 0x108 <__bad_interrupt>
  5a:	00 00       	nop
  5c:	55 c0       	rjmp	.+170    	; 0x108 <__bad_interrupt>
  5e:	00 00       	nop
  60:	53 c0       	rjmp	.+166    	; 0x108 <__bad_interrupt>
  62:	00 00       	nop
  64:	51 c0       	rjmp	.+162    	; 0x108 <__bad_interrupt>
  66:	00 00       	nop
  68:	4f c0       	rjmp	.+158    	; 0x108 <__bad_interrupt>
  6a:	00 00       	nop
  6c:	4d c0       	rjmp	.+154    	; 0x108 <__bad_interrupt>
  6e:	00 00       	nop
  70:	4b c0       	rjmp	.+150    	; 0x108 <__bad_interrupt>
  72:	00 00       	nop
  74:	49 c0       	rjmp	.+146    	; 0x108 <__bad_interrupt>
  76:	00 00       	nop
  78:	47 c0       	rjmp	.+142    	; 0x108 <__bad_interrupt>
  7a:	00 00       	nop
  7c:	45 c0       	rjmp	.+138    	; 0x108 <__bad_interrupt>
  7e:	00 00       	nop
  80:	43 c0       	rjmp	.+134    	; 0x108 <__bad_interrupt>
  82:	00 00       	nop
  84:	41 c0       	rjmp	.+130    	; 0x108 <__bad_interrupt>
  86:	00 00       	nop
  88:	3f c0       	rjmp	.+126    	; 0x108 <__bad_interrupt>
  8a:	00 00       	nop
  8c:	3d c0       	rjmp	.+122    	; 0x108 <__bad_interrupt>
  8e:	00 00       	nop
  90:	3b c0       	rjmp	.+118    	; 0x108 <__bad_interrupt>
  92:	00 00       	nop
  94:	39 c0       	rjmp	.+114    	; 0x108 <__bad_interrupt>
  96:	00 00       	nop
  98:	37 c0       	rjmp	.+110    	; 0x108 <__bad_interrupt>
  9a:	00 00       	nop
  9c:	35 c0       	rjmp	.+106    	; 0x108 <__bad_interrupt>
  9e:	00 00       	nop
  a0:	33 c0       	rjmp	.+102    	; 0x108 <__bad_interrupt>
  a2:	00 00       	nop
  a4:	31 c0       	rjmp	.+98     	; 0x108 <__bad_interrupt>
  a6:	00 00       	nop
  a8:	2f c0       	rjmp	.+94     	; 0x108 <__bad_interrupt>
  aa:	00 00       	nop
  ac:	2d c0       	rjmp	.+90     	; 0x108 <__bad_interrupt>
  ae:	00 00       	nop
  b0:	2b c0       	rjmp	.+86     	; 0x108 <__bad_interrupt>
  b2:	00 00       	nop
  b4:	29 c0       	rjmp	.+82     	; 0x108 <__bad_interrupt>
  b6:	00 00       	nop
  b8:	27 c0       	rjmp	.+78     	; 0x108 <__bad_interrupt>
  ba:	00 00       	nop
  bc:	25 c0       	rjmp	.+74     	; 0x108 <__bad_interrupt>
  be:	00 00       	nop
  c0:	23 c0       	rjmp	.+70     	; 0x108 <__bad_interrupt>
  c2:	00 00       	nop
  c4:	21 c0       	rjmp	.+66     	; 0x108 <__bad_interrupt>
  c6:	00 00       	nop
  c8:	1f c0       	rjmp	.+62     	; 0x108 <__bad_interrupt>
  ca:	00 00       	nop
  cc:	1d c0       	rjmp	.+58     	; 0x108 <__bad_interrupt>
  ce:	00 00       	nop
  d0:	1b c0       	rjmp	.+54     	; 0x108 <__bad_interrupt>
  d2:	00 00       	nop
  d4:	19 c0       	rjmp	.+50     	; 0x108 <__bad_interrupt>
  d6:	00 00       	nop
  d8:	17 c0       	rjmp	.+46     	; 0x108 <__bad_interrupt>
  da:	00 00       	nop
  dc:	15 c0       	rjmp	.+42     	; 0x108 <__bad_interrupt>
  de:	00 00       	nop
  e0:	13 c0       	rjmp	.+38     	; 0x108 <__bad_interrupt>
	...

000000e4 <__ctors_end>:
  e4:	11 24       	eor	r1, r1
  e6:	1f be       	out	0x3f, r1	; 63
  e8:	cf ef       	ldi	r28, 0xFF	; 255
  ea:	d1 e2       	ldi	r29, 0x21	; 33
  ec:	de bf       	out	0x3e, r29	; 62
  ee:	cd bf       	out	0x3d, r28	; 61
  f0:	00 e0       	ldi	r16, 0x00	; 0
  f2:	0c bf       	out	0x3c, r16	; 60

000000f4 <__do_clear_bss>:
  f4:	22 e0       	ldi	r18, 0x02	; 2
  f6:	a0 e0       	ldi	r26, 0x00	; 0
  f8:	b2 e0       	ldi	r27, 0x02	; 2
  fa:	01 c0       	rjmp	.+2      	; 0xfe <.do_clear_bss_start>

000000fc <.do_clear_bss_loop>:
  fc:	1d 92       	st	X+, r1

000000fe <.do_clear_bss_start>:
  fe:	ac 3c       	cpi	r26, 0xCC	; 204
 100:	b2 07       	cpc	r27, r18
 102:	e1 f7       	brne	.-8      	; 0xfc <.do_clear_bss_loop>
 104:	05 d0       	rcall	.+10     	; 0x110 <main>
 106:	0a c1       	rjmp	.+532    	; 0x31c <_exit>

00000108 <__bad_interrupt>:
 108:	7b cf       	rjmp	.-266    	; 0x0 <__vectors>

0000010a <testfunc>:
#include "../include/UARTDriver.h"
#include "../include/RTSmodule.h"

void testfunc()
{
	UARTTransmitByte('S');
 10a:	83 e5       	ldi	r24, 0x53	; 83
 10c:	fd c0       	rjmp	.+506    	; 0x308 <UARTTransmitByte>
 10e:	08 95       	ret

00000110 <main>:
}

int main(void)
{
 110:	cf 93       	push	r28
 112:	df 93       	push	r29
 114:	00 d0       	rcall	.+0      	; 0x116 <main+0x6>
 116:	00 d0       	rcall	.+0      	; 0x118 <main+0x8>
 118:	cd b7       	in	r28, 0x3d	; 61
 11a:	de b7       	in	r29, 0x3e	; 62
    /* Replace with your application code */
	sei();
 11c:	78 94       	sei
	UARTSetup();
 11e:	e4 d0       	rcall	.+456    	; 0x2e8 <UARTSetup>
	RTSInit();
 120:	61 d0       	rcall	.+194    	; 0x1e4 <RTSInit>
 122:	85 e8       	ldi	r24, 0x85	; 133
	
	task_t test_task;
	test_task.task_cbf = testfunc;
 124:	90 e0       	ldi	r25, 0x00	; 0
 126:	9d 83       	std	Y+5, r25	; 0x05
 128:	8c 83       	std	Y+4, r24	; 0x04
 12a:	80 e1       	ldi	r24, 0x10	; 16
	test_task.ticks = 10000;
 12c:	97 e2       	ldi	r25, 0x27	; 39
 12e:	9b 83       	std	Y+3, r25	; 0x03
 130:	8a 83       	std	Y+2, r24	; 0x02
 132:	ce 01       	movw	r24, r28
	
	RTSAddTask(&test_task);
 134:	01 96       	adiw	r24, 0x01	; 1
 136:	6f d0       	rcall	.+222    	; 0x216 <RTSAddTask>
 138:	2a ea       	ldi	r18, 0xAA	; 170
	#else
		//round up by default
		__ticks_dc = (uint32_t)(ceil(fabs(__tmp)));
	#endif

	__builtin_avr_delay_cycles(__ticks_dc);
 13a:	36 ee       	ldi	r19, 0xE6	; 230
 13c:	86 e9       	ldi	r24, 0x96	; 150
 13e:	91 e0       	ldi	r25, 0x01	; 1
 140:	21 50       	subi	r18, 0x01	; 1
 142:	30 40       	sbci	r19, 0x00	; 0
 144:	80 40       	sbci	r24, 0x00	; 0
 146:	90 40       	sbci	r25, 0x00	; 0
 148:	d9 f7       	brne	.-10     	; 0x140 <main+0x30>
 14a:	00 00       	nop
	_delay_ms(10000);
	RTSRun();
 14c:	79 d0       	rcall	.+242    	; 0x240 <RTSRun>
 14e:	2a ea       	ldi	r18, 0xAA	; 170
 150:	36 ee       	ldi	r19, 0xE6	; 230
 152:	86 e9       	ldi	r24, 0x96	; 150
 154:	91 e0       	ldi	r25, 0x01	; 1
 156:	21 50       	subi	r18, 0x01	; 1
 158:	30 40       	sbci	r19, 0x00	; 0
 15a:	80 40       	sbci	r24, 0x00	; 0
 15c:	90 40       	sbci	r25, 0x00	; 0
 15e:	d9 f7       	brne	.-10     	; 0x156 <main+0x46>
 160:	00 00       	nop

	_delay_ms(10000);

	uint8_t msg1 = 'S';

	UARTTransmitByte(msg1);
 162:	83 e5       	ldi	r24, 0x53	; 83
 164:	d1 d0       	rcall	.+418    	; 0x308 <UARTTransmitByte>

	uint8_t msg2 = '\n';

	UARTTransmitByte(msg2);
 166:	8a e0       	ldi	r24, 0x0A	; 10
 168:	cf d0       	rcall	.+414    	; 0x308 <UARTTransmitByte>
 16a:	83 e5       	ldi	r24, 0x53	; 83

	UARTTransmitByte(msg1);
 16c:	cd d0       	rcall	.+410    	; 0x308 <UARTTransmitByte>
 16e:	ef cf       	rjmp	.-34     	; 0x14e <main+0x3e>

00000170 <__vector_17>:
 170:	1f 92       	push	r1
 172:	0f 92       	push	r0

static task_t* task_queue[MAX_QUEUE_LENGTH];
static int8_t crt_queue_size = 0;

ISR(TIMER1_COMPA_vect)
{
 174:	0f b6       	in	r0, 0x3f	; 63
 176:	0f 92       	push	r0
 178:	11 24       	eor	r1, r1
 17a:	0b b6       	in	r0, 0x3b	; 59
 17c:	0f 92       	push	r0
 17e:	2f 93       	push	r18
 180:	3f 93       	push	r19
 182:	4f 93       	push	r20
 184:	5f 93       	push	r21
 186:	6f 93       	push	r22
 188:	7f 93       	push	r23
 18a:	8f 93       	push	r24
 18c:	9f 93       	push	r25
 18e:	af 93       	push	r26
 190:	bf 93       	push	r27
 192:	ef 93       	push	r30
 194:	ff 93       	push	r31
	UARTTransmitByte('I');
 196:	89 e4       	ldi	r24, 0x49	; 73
 198:	b7 d0       	rcall	.+366    	; 0x308 <UARTTransmitByte>
	/*check if the next task should be scheduled*/
	if (tick_countdown == 0)
 19a:	80 91 ca 02 	lds	r24, 0x02CA	; 0x8002ca <tick_countdown>
 19e:	90 91 cb 02 	lds	r25, 0x02CB	; 0x8002cb <tick_countdown+0x1>
 1a2:	00 97       	sbiw	r24, 0x00	; 0
 1a4:	21 f4       	brne	.+8      	; 0x1ae <__vector_17+0x3e>
		RTSTaskState = Timeout;
 1a6:	83 e0       	ldi	r24, 0x03	; 3
 1a8:	80 93 c9 02 	sts	0x02C9, r24	; 0x8002c9 <RTSTaskState>
 1ac:	08 c0       	rjmp	.+16     	; 0x1be <__vector_17+0x4e>

	/*decrement the tick counter if still positive*/
	if(tick_countdown > 0)
 1ae:	18 16       	cp	r1, r24
 1b0:	19 06       	cpc	r1, r25
 1b2:	2c f4       	brge	.+10     	; 0x1be <__vector_17+0x4e>
		tick_countdown--;
 1b4:	01 97       	sbiw	r24, 0x01	; 1
 1b6:	90 93 cb 02 	sts	0x02CB, r25	; 0x8002cb <tick_countdown+0x1>
 1ba:	80 93 ca 02 	sts	0x02CA, r24	; 0x8002ca <tick_countdown>
		
}
 1be:	ff 91       	pop	r31
 1c0:	ef 91       	pop	r30
 1c2:	bf 91       	pop	r27
 1c4:	af 91       	pop	r26
 1c6:	9f 91       	pop	r25
 1c8:	8f 91       	pop	r24
 1ca:	7f 91       	pop	r23
 1cc:	6f 91       	pop	r22
 1ce:	5f 91       	pop	r21
 1d0:	4f 91       	pop	r20
 1d2:	3f 91       	pop	r19
 1d4:	2f 91       	pop	r18
 1d6:	0f 90       	pop	r0
 1d8:	0b be       	out	0x3b, r0	; 59
 1da:	0f 90       	pop	r0
 1dc:	0f be       	out	0x3f, r0	; 63
 1de:	0f 90       	pop	r0
 1e0:	1f 90       	pop	r1
 1e2:	18 95       	reti

000001e4 <RTSInit>:
	waitForTask(task);
}

void RTSInit()
{
	PRR0 &= 0b11110111; //Enable Timer1.
 1e4:	e4 e6       	ldi	r30, 0x64	; 100
 1e6:	f0 e0       	ldi	r31, 0x00	; 0
 1e8:	80 81       	ld	r24, Z
 1ea:	87 7f       	andi	r24, 0xF7	; 247
 1ec:	80 83       	st	Z, r24
	TCCR1A &= 0b11111100; //Put the timer in clear timer on compare match mode.
 1ee:	e0 e8       	ldi	r30, 0x80	; 128
 1f0:	f0 e0       	ldi	r31, 0x00	; 0
 1f2:	80 81       	ld	r24, Z
 1f4:	8c 7f       	andi	r24, 0xFC	; 252
 1f6:	80 83       	st	Z, r24
	TCCR1B |= 0b00001101; //Prescale counting clock to 1/1024.
 1f8:	e1 e8       	ldi	r30, 0x81	; 129
 1fa:	f0 e0       	ldi	r31, 0x00	; 0
 1fc:	80 81       	ld	r24, Z
 1fe:	8d 60       	ori	r24, 0x0D	; 13
 200:	80 83       	st	Z, r24
	TCCR1B &= 0b11101101;
 202:	80 81       	ld	r24, Z
 204:	8d 7e       	andi	r24, 0xED	; 237
 206:	80 83       	st	Z, r24
	
	OCR1A = 16625;
 208:	81 ef       	ldi	r24, 0xF1	; 241
 20a:	90 e4       	ldi	r25, 0x40	; 64
 20c:	90 93 89 00 	sts	0x0089, r25	; 0x800089 <__TEXT_REGION_LENGTH__+0x700089>
 210:	80 93 88 00 	sts	0x0088, r24	; 0x800088 <__TEXT_REGION_LENGTH__+0x700088>
 214:	08 95       	ret

00000216 <RTSAddTask>:
	//Da clocken er 16 Mhz ønskes en tick til tick tid på 100 us. (1600 operationer pr. tick)

}

int8_t RTSAddTask(task_t* task_pointer)
{
 216:	fc 01       	movw	r30, r24
	if (MAX_QUEUE_LENGTH == crt_queue_size)
 218:	90 91 00 02 	lds	r25, 0x0200	; 0x800200 <_edata>
 21c:	94 36       	cpi	r25, 0x64	; 100
 21e:	71 f0       	breq	.+28     	; 0x23c <RTSAddTask+0x26>
		return Error;
	
	task_queue[crt_queue_size] = task_pointer;
 220:	a9 2f       	mov	r26, r25
 222:	aa 0f       	add	r26, r26
 224:	bb 0b       	sbc	r27, r27
 226:	af 5f       	subi	r26, 0xFF	; 255
 228:	bd 4f       	sbci	r27, 0xFD	; 253
 22a:	ed 93       	st	X+, r30
 22c:	fc 93       	st	X, r31
	task_pointer->task_id = crt_queue_size;
 22e:	90 83       	st	Z, r25
	task_pointer->task_state = Idle;
 230:	15 82       	std	Z+5, r1	; 0x05
	crt_queue_size++;
 232:	9f 5f       	subi	r25, 0xFF	; 255
 234:	90 93 00 02 	sts	0x0200, r25	; 0x800200 <_edata>
	
	
	return Success;
 238:	80 e0       	ldi	r24, 0x00	; 0
 23a:	08 95       	ret
}

int8_t RTSAddTask(task_t* task_pointer)
{
	if (MAX_QUEUE_LENGTH == crt_queue_size)
		return Error;
 23c:	8f ef       	ldi	r24, 0xFF	; 255
	task_pointer->task_state = Idle;
	crt_queue_size++;
	
	
	return Success;
}
 23e:	08 95       	ret

00000240 <RTSRun>:

void RTSRun()
{
 240:	0f 93       	push	r16
 242:	1f 93       	push	r17
 244:	cf 93       	push	r28
 246:	df 93       	push	r29
	//Do next job.
	int8_t current_task = 0;

    /*run forever, current_task will be reset before exceeding task_queue_size*/
	for(current_task = 0; current_task<=crt_queue_size; current_task++)
 248:	80 91 00 02 	lds	r24, 0x0200	; 0x800200 <_edata>
 24c:	88 23       	and	r24, r24
 24e:	0c f4       	brge	.+2      	; 0x252 <RTSRun+0x12>
 250:	46 c0       	rjmp	.+140    	; 0x2de <RTSRun+0x9e>
 252:	c0 e0       	ldi	r28, 0x00	; 0

static void RTSRunTask(task_t* task)
{
	//Run for number of ticks corresponding to task.
	tick_countdown = task->ticks;
	task->task_state = Running;
 254:	d1 e0       	ldi	r29, 0x01	; 1
	{
		/*if end of the queue go back to the beginning*/
		if(crt_queue_size == current_task)
		current_task = 0;

		RTSRunTask(task_queue[current_task]);
 256:	01 e0       	ldi	r16, 0x01	; 1
 258:	12 e0       	ldi	r17, 0x02	; 2

    /*run forever, current_task will be reset before exceeding task_queue_size*/
	for(current_task = 0; current_task<=crt_queue_size; current_task++)
	{
		/*if end of the queue go back to the beginning*/
		if(crt_queue_size == current_task)
 25a:	c8 13       	cpse	r28, r24
 25c:	28 c0       	rjmp	.+80     	; 0x2ae <RTSRun+0x6e>
 25e:	13 c0       	rjmp	.+38     	; 0x286 <RTSRun+0x46>
		current_task = 0;
 260:	c0 e0       	ldi	r28, 0x00	; 0
static int8_t waitForTask(task_t* task)
{
	if(RTSTaskState == Timeout)
	{
		//Task has taken too long!
		UARTTransmitByte('E');
 262:	85 e4       	ldi	r24, 0x45	; 69
 264:	51 d0       	rcall	.+162    	; 0x308 <UARTTransmitByte>
 266:	09 c0       	rjmp	.+18     	; 0x27a <RTSRun+0x3a>
    /*run forever, current_task will be reset before exceeding task_queue_size*/
	for(current_task = 0; current_task<=crt_queue_size; current_task++)
	{
		/*if end of the queue go back to the beginning*/
		if(crt_queue_size == current_task)
		current_task = 0;
 268:	80 e0       	ldi	r24, 0x00	; 0
 26a:	90 e0       	ldi	r25, 0x00	; 0
 26c:	01 96       	adiw	r24, 0x01	; 1
		return Error;	
	}
	
	//Avoid infinite loop lockup.
	int64_t cnt;
	for(cnt = 0; cnt < 50000; cnt++)
 26e:	8f 34       	cpi	r24, 0x4F	; 79
 270:	23 ec       	ldi	r18, 0xC3	; 195
 272:	92 07       	cpc	r25, r18
 274:	d9 f7       	brne	.-10     	; 0x26c <RTSRun+0x2c>
			return Success;
		}
	}
	
	//We should never get to this point, unless the scheduler has failed.
	UARTTransmitByte('F');
 276:	86 e4       	ldi	r24, 0x46	; 70
 278:	47 d0       	rcall	.+142    	; 0x308 <UARTTransmitByte>
{
	//Do next job.
	int8_t current_task = 0;

    /*run forever, current_task will be reset before exceeding task_queue_size*/
	for(current_task = 0; current_task<=crt_queue_size; current_task++)
 27a:	cf 5f       	subi	r28, 0xFF	; 255
 27c:	80 91 00 02 	lds	r24, 0x0200	; 0x800200 <_edata>
 280:	8c 17       	cp	r24, r28
 282:	5c f7       	brge	.-42     	; 0x25a <RTSRun+0x1a>
 284:	2c c0       	rjmp	.+88     	; 0x2de <RTSRun+0x9e>
	{
		/*if end of the queue go back to the beginning*/
		if(crt_queue_size == current_task)
		current_task = 0;

		RTSRunTask(task_queue[current_task]);
 286:	d8 01       	movw	r26, r16
 288:	ed 91       	ld	r30, X+
 28a:	fc 91       	ld	r31, X
}

static void RTSRunTask(task_t* task)
{
	//Run for number of ticks corresponding to task.
	tick_countdown = task->ticks;
 28c:	81 81       	ldd	r24, Z+1	; 0x01
 28e:	92 81       	ldd	r25, Z+2	; 0x02
 290:	90 93 cb 02 	sts	0x02CB, r25	; 0x8002cb <tick_countdown+0x1>
 294:	80 93 ca 02 	sts	0x02CA, r24	; 0x8002ca <tick_countdown>
	task->task_state = Running;
 298:	d5 83       	std	Z+5, r29	; 0x05
	
	task->task_cbf();
 29a:	03 80       	ldd	r0, Z+3	; 0x03
 29c:	f4 81       	ldd	r31, Z+4	; 0x04
 29e:	e0 2d       	mov	r30, r0
 2a0:	19 95       	eicall
}

//internal helper function.
static int8_t waitForTask(task_t* task)
{
	if(RTSTaskState == Timeout)
 2a2:	80 91 c9 02 	lds	r24, 0x02C9	; 0x8002c9 <RTSTaskState>
 2a6:	83 30       	cpi	r24, 0x03	; 3
 2a8:	d9 f2       	breq	.-74     	; 0x260 <RTSRun+0x20>
    /*run forever, current_task will be reset before exceeding task_queue_size*/
	for(current_task = 0; current_task<=crt_queue_size; current_task++)
	{
		/*if end of the queue go back to the beginning*/
		if(crt_queue_size == current_task)
		current_task = 0;
 2aa:	c0 e0       	ldi	r28, 0x00	; 0
 2ac:	dd cf       	rjmp	.-70     	; 0x268 <RTSRun+0x28>

		RTSRunTask(task_queue[current_task]);
 2ae:	ec 2f       	mov	r30, r28
 2b0:	ee 0f       	add	r30, r30
 2b2:	ff 0b       	sbc	r31, r31
 2b4:	ef 5f       	subi	r30, 0xFF	; 255
 2b6:	fd 4f       	sbci	r31, 0xFD	; 253
 2b8:	01 90       	ld	r0, Z+
 2ba:	f0 81       	ld	r31, Z
 2bc:	e0 2d       	mov	r30, r0
}

static void RTSRunTask(task_t* task)
{
	//Run for number of ticks corresponding to task.
	tick_countdown = task->ticks;
 2be:	81 81       	ldd	r24, Z+1	; 0x01
 2c0:	92 81       	ldd	r25, Z+2	; 0x02
 2c2:	90 93 cb 02 	sts	0x02CB, r25	; 0x8002cb <tick_countdown+0x1>
 2c6:	80 93 ca 02 	sts	0x02CA, r24	; 0x8002ca <tick_countdown>
	task->task_state = Running;
 2ca:	d5 83       	std	Z+5, r29	; 0x05
	
	task->task_cbf();
 2cc:	03 80       	ldd	r0, Z+3	; 0x03
 2ce:	f4 81       	ldd	r31, Z+4	; 0x04
 2d0:	e0 2d       	mov	r30, r0
 2d2:	19 95       	eicall
}

//internal helper function.
static int8_t waitForTask(task_t* task)
{
	if(RTSTaskState == Timeout)
 2d4:	80 91 c9 02 	lds	r24, 0x02C9	; 0x8002c9 <RTSTaskState>
 2d8:	83 30       	cpi	r24, 0x03	; 3
 2da:	31 f6       	brne	.-116    	; 0x268 <RTSRun+0x28>
 2dc:	c2 cf       	rjmp	.-124    	; 0x262 <RTSRun+0x22>
		if(crt_queue_size == current_task)
		current_task = 0;

		RTSRunTask(task_queue[current_task]);
	}
 2de:	df 91       	pop	r29
 2e0:	cf 91       	pop	r28
 2e2:	1f 91       	pop	r17
 2e4:	0f 91       	pop	r16
 2e6:	08 95       	ret

000002e8 <UARTSetup>:
 #define Error  -1
 #define XTAL 16000000

 void UARTSetup()
 {
	UCSR0A = 0b00100000;
 2e8:	80 e2       	ldi	r24, 0x20	; 32
 2ea:	80 93 c0 00 	sts	0x00C0, r24	; 0x8000c0 <__TEXT_REGION_LENGTH__+0x7000c0>
	UCSR0B = 0b00011000;
 2ee:	88 e1       	ldi	r24, 0x18	; 24
 2f0:	80 93 c1 00 	sts	0x00C1, r24	; 0x8000c1 <__TEXT_REGION_LENGTH__+0x7000c1>
	UCSR0C = 0b00000110;
 2f4:	86 e0       	ldi	r24, 0x06	; 6
 2f6:	80 93 c2 00 	sts	0x00C2, r24	; 0x8000c2 <__TEXT_REGION_LENGTH__+0x7000c2>

	UBRR0 = 103;
 2fa:	87 e6       	ldi	r24, 0x67	; 103
 2fc:	90 e0       	ldi	r25, 0x00	; 0
 2fe:	90 93 c5 00 	sts	0x00C5, r25	; 0x8000c5 <__TEXT_REGION_LENGTH__+0x7000c5>
 302:	80 93 c4 00 	sts	0x00C4, r24	; 0x8000c4 <__TEXT_REGION_LENGTH__+0x7000c4>
 306:	08 95       	ret

00000308 <UARTTransmitByte>:
 }

 int8_t UARTTransmitByte(uint8_t byte)
 {
	if((UCSR0A & (1<<UDRE0)) != 0)
 308:	90 91 c0 00 	lds	r25, 0x00C0	; 0x8000c0 <__TEXT_REGION_LENGTH__+0x7000c0>
 30c:	95 ff       	sbrs	r25, 5
 30e:	04 c0       	rjmp	.+8      	; 0x318 <UARTTransmitByte+0x10>
	{
		UDR0 = byte;
 310:	80 93 c6 00 	sts	0x00C6, r24	; 0x8000c6 <__TEXT_REGION_LENGTH__+0x7000c6>

		return Success;
 314:	80 e0       	ldi	r24, 0x00	; 0
 316:	08 95       	ret
	}

	return Error;
 318:	8f ef       	ldi	r24, 0xFF	; 255
 31a:	08 95       	ret

0000031c <_exit>:
 31c:	f8 94       	cli

0000031e <__stop_program>:
 31e:	ff cf       	rjmp	.-2      	; 0x31e <__stop_program>
